#include <math.h>
#include <stdio.h>
#include <stdlib.h>
#include <string.h>

int main()
{
	int n;
	int a=0;
	int i=1;
	scanf("%d",&n);
	for (i=1; i<=n; i++)
	{
		if (i%7==0)
		{
			continue;
		}
	    if((i-7)%10==0)
		{
			continue;
		}
		if(i/10==7)
		{
			continue;
		}
			a=a+i*i;
	}
	printf("%d", a);
	return 0;
}
